target datalayout = "e-m:e-p270:32:32-p271:32:32-p272:64:64-i64:64-i128:128-f80:128-n8:16:32:64-S128"
target triple = "x86_64-pc-linux-gnu"

%struct.Ssw_Cla_t_ = type { ptr, ptr, ptr, i32, i32, i32, i32, ptr, ptr, ptr, ptr, ptr, ptr, ptr, ptr, ptr }
%struct.Aig_Man_t_ = type { ptr, ptr, ptr, ptr, ptr, ptr, ptr, %struct.Aig_Obj_t_, i32, i32, i32, i32, i32, i32, [7 x i32], i32, ptr, i32, ptr, i32, ptr, i32, i32, i32, ptr, i32, i32, i32, i32, i32, ptr, ptr, i32, ptr, ptr, i32, ptr, ptr, i32, i32, i32, ptr, ptr, ptr, ptr, ptr, ptr, ptr, ptr, ptr, ptr, ptr, ptr, ptr, ptr, i32, ptr, ptr, ptr, ptr, i32, i64, i64, i64, ptr, ptr }
%struct.Aig_Obj_t_ = type { %union.anon, ptr, ptr, i64, i32, i32, %union.anon.0 }
%union.anon = type { ptr }
%union.anon.0 = type { ptr }
%struct.Vec_Ptr_t_ = type { i32, i32, ptr }
%struct.Vec_Int_t_ = type { i32, i32, ptr }

; Function Attrs: inlinehint nounwind uwtable
define internal ptr @Aig_ManConst1(ptr noundef %0) #5 {
  %2 = alloca ptr, align 8
  store ptr %0, ptr %2, align 8, !tbaa !3
  %3 = load ptr, ptr %2, align 8, !tbaa !3
  %4 = getelementptr inbounds nuw %struct.Aig_Man_t_, ptr %3, i32 0, i32 6
  %5 = load ptr, ptr %4, align 8, !tbaa !109
  ret ptr %5
}

; Function Attrs: inlinehint nounwind uwtable
define internal ptr @Aig_ObjRepr(ptr noundef %0, ptr noundef %1) #5 {
  %3 = alloca ptr, align 8
  %4 = alloca ptr, align 8
  store ptr %0, ptr %3, align 8, !tbaa !3
  store ptr %1, ptr %4, align 8, !tbaa !48
  %5 = load ptr, ptr %3, align 8, !tbaa !3
  %6 = getelementptr inbounds nuw %struct.Aig_Man_t_, ptr %5, i32 0, i32 31
  %7 = load ptr, ptr %6, align 8, !tbaa !22
  %8 = icmp ne ptr %7, null
  br i1 %8, label %9, label %19

9:                                                ; preds = %2
  %10 = load ptr, ptr %3, align 8, !tbaa !3
  %11 = getelementptr inbounds nuw %struct.Aig_Man_t_, ptr %10, i32 0, i32 31
  %12 = load ptr, ptr %11, align 8, !tbaa !22
  %13 = load ptr, ptr %4, align 8, !tbaa !48
  %14 = getelementptr inbounds nuw %struct.Aig_Obj_t_, ptr %13, i32 0, i32 5
  %15 = load i32, ptr %14, align 4, !tbaa !50
  %16 = sext i32 %15 to i64
  %17 = getelementptr inbounds ptr, ptr %12, i64 %16
  %18 = load ptr, ptr %17, align 8, !tbaa !48
  br label %20

19:                                               ; preds = %2
  br label %20

20:                                               ; preds = %19, %9
  %21 = phi ptr [ %18, %9 ], [ null, %19 ]
  ret ptr %21
}

; Function Attrs: inlinehint nounwind uwtable
define internal i32 @Ssw_ObjIsConst1Cand(ptr noundef %0, ptr noundef %1) #5 {
  %3 = alloca ptr, align 8
  %4 = alloca ptr, align 8
  store ptr %0, ptr %3, align 8, !tbaa !3
  store ptr %1, ptr %4, align 8, !tbaa !48
  %5 = load ptr, ptr %3, align 8, !tbaa !3
  %6 = load ptr, ptr %4, align 8, !tbaa !48
  %7 = call ptr @Aig_ObjRepr(ptr noundef %5, ptr noundef %6)
  %8 = load ptr, ptr %3, align 8, !tbaa !3
  %9 = call ptr @Aig_ManConst1(ptr noundef %8)
  %10 = icmp eq ptr %7, %9
  %11 = zext i1 %10 to i32
  ret i32 %11
}

; Function Attrs: inlinehint nounwind uwtable
define internal i32 @Vec_PtrSize(ptr noundef %0) #5 {
  %2 = alloca ptr, align 8
  store ptr %0, ptr %2, align 8, !tbaa !34
  %3 = load ptr, ptr %2, align 8, !tbaa !34
  %4 = getelementptr inbounds nuw %struct.Vec_Ptr_t_, ptr %3, i32 0, i32 1
  %5 = load i32, ptr %4, align 4, !tbaa !35
  ret i32 %5
}

; Function Attrs: inlinehint nounwind uwtable
define internal i32 @Aig_ManObjNumMax(ptr noundef %0) #5 {
  %2 = alloca ptr, align 8
  store ptr %0, ptr %2, align 8, !tbaa !3
  %3 = load ptr, ptr %2, align 8, !tbaa !3
  %4 = getelementptr inbounds nuw %struct.Aig_Man_t_, ptr %3, i32 0, i32 4
  %5 = load ptr, ptr %4, align 8, !tbaa !32
  %6 = call i32 @Vec_PtrSize(ptr noundef %5)
  ret i32 %6
}

; Function Attrs: inlinehint nounwind uwtable
define internal ptr @Vec_PtrEntry(ptr noundef %0, i32 noundef %1) #5 {
  %3 = alloca ptr, align 8
  %4 = alloca i32, align 4
  store ptr %0, ptr %3, align 8, !tbaa !34
  store i32 %1, ptr %4, align 4, !tbaa !33
  %5 = load ptr, ptr %3, align 8, !tbaa !34
  %6 = getelementptr inbounds nuw %struct.Vec_Ptr_t_, ptr %5, i32 0, i32 2
  %7 = load ptr, ptr %6, align 8, !tbaa !38
  %8 = load i32, ptr %4, align 4, !tbaa !33
  %9 = sext i32 %8 to i64
  %10 = getelementptr inbounds ptr, ptr %7, i64 %9
  %11 = load ptr, ptr %10, align 8, !tbaa !39
  ret ptr %11
}

; Function Attrs: nounwind uwtable
define void @Ssw_ClassesCheck(ptr noundef %0) #0 {
  %2 = alloca ptr, align 8
  %3 = alloca ptr, align 8
  %4 = alloca ptr, align 8
  %5 = alloca ptr, align 8
  %6 = alloca i32, align 4
  %7 = alloca i32, align 4
  %8 = alloca i32, align 4
  %9 = alloca i32, align 4
  %10 = alloca i32, align 4
  store ptr %0, ptr %2, align 8, !tbaa !8
  call void @llvm.lifetime.start.p0(i64 8, ptr %3) #11
  call void @llvm.lifetime.start.p0(i64 8, ptr %4) #11
  call void @llvm.lifetime.start.p0(i64 8, ptr %5) #11
  call void @llvm.lifetime.start.p0(i64 4, ptr %6) #11
  call void @llvm.lifetime.start.p0(i64 4, ptr %7) #11
  call void @llvm.lifetime.start.p0(i64 4, ptr %8) #11
  call void @llvm.lifetime.start.p0(i64 4, ptr %9) #11
  call void @llvm.lifetime.start.p0(i64 4, ptr %10) #11
  store i32 0, ptr %8, align 4, !tbaa !33
  store i32 0, ptr %9, align 4, !tbaa !33
  store i32 0, ptr %7, align 4, !tbaa !33
  br label %11

11:                                               ; preds = %78, %1
  %12 = load i32, ptr %7, align 4, !tbaa !33
  %13 = load ptr, ptr %2, align 8, !tbaa !8
  %14 = getelementptr inbounds nuw %struct.Ssw_Cla_t_, ptr %13, i32 0, i32 0
  %15 = load ptr, ptr %14, align 8, !tbaa !10
  %16 = call i32 @Aig_ManObjNumMax(ptr noundef %15)
  %17 = icmp slt i32 %12, %16
  br i1 %17, label %18, label %81

18:                                               ; preds = %11
  %19 = load ptr, ptr %2, align 8, !tbaa !8
  %20 = getelementptr inbounds nuw %struct.Ssw_Cla_t_, ptr %19, i32 0, i32 1
  %21 = load ptr, ptr %20, align 8, !tbaa !17
  %22 = load i32, ptr %7, align 4, !tbaa !33
  %23 = sext i32 %22 to i64
  %24 = getelementptr inbounds ptr, ptr %21, i64 %23
  %25 = load ptr, ptr %24, align 8, !tbaa !51
  store ptr %25, ptr %5, align 8, !tbaa !51
  %26 = icmp eq ptr %25, null
  br i1 %26, label %27, label %28

27:                                               ; preds = %18
  br label %77

28:                                               ; preds = %18
  store ptr null, ptr %4, align 8, !tbaa !48
  store i32 0, ptr %6, align 4, !tbaa !33
  br label %29

29:                                               ; preds = %71, %28
  %30 = load i32, ptr %6, align 4, !tbaa !33
  %31 = load ptr, ptr %2, align 8, !tbaa !8
  %32 = getelementptr inbounds nuw %struct.Ssw_Cla_t_, ptr %31, i32 0, i32 2
  %33 = load ptr, ptr %32, align 8, !tbaa !18
  %34 = load ptr, ptr %5, align 8, !tbaa !51
  %35 = getelementptr inbounds ptr, ptr %34, i64 0
  %36 = load ptr, ptr %35, align 8, !tbaa !48
  %37 = getelementptr inbounds nuw %struct.Aig_Obj_t_, ptr %36, i32 0, i32 5
  %38 = load i32, ptr %37, align 4, !tbaa !50
  %39 = sext i32 %38 to i64
  %40 = getelementptr inbounds i32, ptr %33, i64 %39
  %41 = load i32, ptr %40, align 4, !tbaa !33
  %42 = icmp slt i32 %30, %41
  br i1 %42, label %43, label %74

43:                                               ; preds = %29
  %44 = load ptr, ptr %2, align 8, !tbaa !8
  %45 = getelementptr inbounds nuw %struct.Ssw_Cla_t_, ptr %44, i32 0, i32 1
  %46 = load ptr, ptr %45, align 8, !tbaa !17
  %47 = load ptr, ptr %5, align 8, !tbaa !51
  %48 = getelementptr inbounds ptr, ptr %47, i64 0
  %49 = load ptr, ptr %48, align 8, !tbaa !48
  %50 = getelementptr inbounds nuw %struct.Aig_Obj_t_, ptr %49, i32 0, i32 5
  %51 = load i32, ptr %50, align 4, !tbaa !50
  %52 = sext i32 %51 to i64
  %53 = getelementptr inbounds ptr, ptr %46, i64 %52
  %54 = load ptr, ptr %53, align 8, !tbaa !51
  %55 = load i32, ptr %6, align 4, !tbaa !33
  %56 = sext i32 %55 to i64
  %57 = getelementptr inbounds ptr, ptr %54, i64 %56
  %58 = load ptr, ptr %57, align 8, !tbaa !48
  store ptr %58, ptr %3, align 8, !tbaa !48
  %59 = icmp eq ptr %58, null
  br i1 %59, label %60, label %61

60:                                               ; preds = %43
  br label %70

61:                                               ; preds = %43
  %62 = load i32, ptr %6, align 4, !tbaa !33
  %63 = icmp eq i32 %62, 0
  br i1 %63, label %64, label %65

64:                                               ; preds = %61
  br label %68

65:                                               ; preds = %61
  %66 = load i32, ptr %8, align 4, !tbaa !33
  %67 = add nsw i32 %66, 1
  store i32 %67, ptr %8, align 4, !tbaa !33
  br label %68

68:                                               ; preds = %65, %64
  %69 = load ptr, ptr %3, align 8, !tbaa !48
  store ptr %69, ptr %4, align 8, !tbaa !48
  br label %70

70:                                               ; preds = %68, %60
  br label %71

71:                                               ; preds = %70
  %72 = load i32, ptr %6, align 4, !tbaa !33
  %73 = add nsw i32 %72, 1
  store i32 %73, ptr %6, align 4, !tbaa !33
  br label %29, !llvm.loop !54

74:                                               ; preds = %29
  %75 = load i32, ptr %9, align 4, !tbaa !33
  %76 = add nsw i32 %75, 1
  store i32 %76, ptr %9, align 4, !tbaa !33
  br label %77

77:                                               ; preds = %74, %27
  br label %78

78:                                               ; preds = %77
  %79 = load i32, ptr %7, align 4, !tbaa !33
  %80 = add nsw i32 %79, 1
  store i32 %80, ptr %7, align 4, !tbaa !33
  br label %11, !llvm.loop !55

81:                                               ; preds = %11
  store i32 0, ptr %10, align 4, !tbaa !33
  store i32 0, ptr %6, align 4, !tbaa !33
  br label %82

82:                                               ; preds = %114, %81
  %83 = load i32, ptr %6, align 4, !tbaa !33
  %84 = load ptr, ptr %2, align 8, !tbaa !8
  %85 = getelementptr inbounds nuw %struct.Ssw_Cla_t_, ptr %84, i32 0, i32 0
  %86 = load ptr, ptr %85, align 8, !tbaa !10
  %87 = getelementptr inbounds nuw %struct.Aig_Man_t_, ptr %86, i32 0, i32 4
  %88 = load ptr, ptr %87, align 8, !tbaa !32
  %89 = call i32 @Vec_PtrSize(ptr noundef %88)
  %90 = icmp slt i32 %83, %89
  br i1 %90, label %91, label %99

91:                                               ; preds = %82
  %92 = load ptr, ptr %2, align 8, !tbaa !8
  %93 = getelementptr inbounds nuw %struct.Ssw_Cla_t_, ptr %92, i32 0, i32 0
  %94 = load ptr, ptr %93, align 8, !tbaa !10
  %95 = getelementptr inbounds nuw %struct.Aig_Man_t_, ptr %94, i32 0, i32 4
  %96 = load ptr, ptr %95, align 8, !tbaa !32
  %97 = load i32, ptr %6, align 4, !tbaa !33
  %98 = call ptr @Vec_PtrEntry(ptr noundef %96, i32 noundef %97)
  store ptr %98, ptr %3, align 8, !tbaa !48
  br label %99

99:                                               ; preds = %91, %82
  %100 = phi i1 [ false, %82 ], [ true, %91 ]
  br i1 %100, label %101, label %117

101:                                              ; preds = %99
  %102 = load ptr, ptr %3, align 8, !tbaa !48
  %103 = icmp eq ptr %102, null
  br i1 %103, label %104, label %105

104:                                              ; preds = %101
  br label %113

105:                                              ; preds = %101
  %106 = load ptr, ptr %2, align 8, !tbaa !8
  %107 = getelementptr inbounds nuw %struct.Ssw_Cla_t_, ptr %106, i32 0, i32 0
  %108 = load ptr, ptr %107, align 8, !tbaa !10
  %109 = load ptr, ptr %3, align 8, !tbaa !48
  %110 = call i32 @Ssw_ObjIsConst1Cand(ptr noundef %108, ptr noundef %109)
  %111 = load i32, ptr %10, align 4, !tbaa !33
  %112 = add nsw i32 %111, %110
  store i32 %112, ptr %10, align 4, !tbaa !33
  br label %113

113:                                              ; preds = %105, %104
  br label %114

114:                                              ; preds = %113
  %115 = load i32, ptr %6, align 4, !tbaa !33
  %116 = add nsw i32 %115, 1
  store i32 %116, ptr %6, align 4, !tbaa !33
  br label %82, !llvm.loop !56

117:                                              ; preds = %99
  call void @llvm.lifetime.end.p0(i64 4, ptr %10) #11
  call void @llvm.lifetime.end.p0(i64 4, ptr %9) #11
  call void @llvm.lifetime.end.p0(i64 4, ptr %8) #11
  call void @llvm.lifetime.end.p0(i64 4, ptr %7) #11
  call void @llvm.lifetime.end.p0(i64 4, ptr %6) #11
  call void @llvm.lifetime.end.p0(i64 8, ptr %5) #11
  call void @llvm.lifetime.end.p0(i64 8, ptr %4) #11
  call void @llvm.lifetime.end.p0(i64 8, ptr %3) #11
  ret void
}

; Function Attrs: inlinehint nounwind uwtable
define internal void @Ssw_ObjAddClass(ptr noundef %0, ptr noundef %1, ptr noundef %2, i32 noundef %3) #5 {
  %5 = alloca ptr, align 8
  %6 = alloca ptr, align 8
  %7 = alloca ptr, align 8
  %8 = alloca i32, align 4
  store ptr %0, ptr %5, align 8, !tbaa !8
  store ptr %1, ptr %6, align 8, !tbaa !48
  store ptr %2, ptr %7, align 8, !tbaa !51
  store i32 %3, ptr %8, align 4, !tbaa !33
  %9 = load ptr, ptr %7, align 8, !tbaa !51
  %10 = load ptr, ptr %5, align 8, !tbaa !8
  %11 = getelementptr inbounds nuw %struct.Ssw_Cla_t_, ptr %10, i32 0, i32 1
  %12 = load ptr, ptr %11, align 8, !tbaa !17
  %13 = load ptr, ptr %6, align 8, !tbaa !48
  %14 = getelementptr inbounds nuw %struct.Aig_Obj_t_, ptr %13, i32 0, i32 5
  %15 = load i32, ptr %14, align 4, !tbaa !50
  %16 = sext i32 %15 to i64
  %17 = getelementptr inbounds ptr, ptr %12, i64 %16
  store ptr %9, ptr %17, align 8, !tbaa !51
  %18 = load i32, ptr %8, align 4, !tbaa !33
  %19 = load ptr, ptr %5, align 8, !tbaa !8
  %20 = getelementptr inbounds nuw %struct.Ssw_Cla_t_, ptr %19, i32 0, i32 2
  %21 = load ptr, ptr %20, align 8, !tbaa !18
  %22 = load ptr, ptr %6, align 8, !tbaa !48
  %23 = getelementptr inbounds nuw %struct.Aig_Obj_t_, ptr %22, i32 0, i32 5
  %24 = load i32, ptr %23, align 4, !tbaa !50
  %25 = sext i32 %24 to i64
  %26 = getelementptr inbounds i32, ptr %21, i64 %25
  store i32 %18, ptr %26, align 4, !tbaa !33
  %27 = load ptr, ptr %5, align 8, !tbaa !8
  %28 = getelementptr inbounds nuw %struct.Ssw_Cla_t_, ptr %27, i32 0, i32 4
  %29 = load i32, ptr %28, align 4, !tbaa !46
  %30 = add nsw i32 %29, 1
  store i32 %30, ptr %28, align 4, !tbaa !46
  %31 = load i32, ptr %8, align 4, !tbaa !33
  %32 = sub nsw i32 %31, 1
  %33 = load ptr, ptr %5, align 8, !tbaa !8
  %34 = getelementptr inbounds nuw %struct.Ssw_Cla_t_, ptr %33, i32 0, i32 6
  %35 = load i32, ptr %34, align 4, !tbaa !47
  %36 = add nsw i32 %35, %32
  store i32 %36, ptr %34, align 4, !tbaa !47
  ret void
}

; Function Attrs: inlinehint nounwind uwtable
define internal void @Aig_ObjSetRepr(ptr noundef %0, ptr noundef %1, ptr noundef %2) #5 {
  %4 = alloca ptr, align 8
  %5 = alloca ptr, align 8
  %6 = alloca ptr, align 8
  store ptr %0, ptr %4, align 8, !tbaa !3
  store ptr %1, ptr %5, align 8, !tbaa !48
  store ptr %2, ptr %6, align 8, !tbaa !48
  %7 = load ptr, ptr %6, align 8, !tbaa !48
  %8 = load ptr, ptr %4, align 8, !tbaa !3
  %9 = getelementptr inbounds nuw %struct.Aig_Man_t_, ptr %8, i32 0, i32 31
  %10 = load ptr, ptr %9, align 8, !tbaa !22
  %11 = load ptr, ptr %5, align 8, !tbaa !48
  %12 = getelementptr inbounds nuw %struct.Aig_Obj_t_, ptr %11, i32 0, i32 5
  %13 = load i32, ptr %12, align 4, !tbaa !50
  %14 = sext i32 %13 to i64
  %15 = getelementptr inbounds ptr, ptr %10, i64 %14
  store ptr %7, ptr %15, align 8, !tbaa !48
  ret void
}

; Function Attrs: inlinehint nounwind uwtable
define internal ptr @Aig_ManObj(ptr noundef %0, i32 noundef %1) #5 {
  %3 = alloca ptr, align 8
  %4 = alloca i32, align 4
  store ptr %0, ptr %3, align 8, !tbaa !3
  store i32 %1, ptr %4, align 4, !tbaa !33
  %5 = load ptr, ptr %3, align 8, !tbaa !3
  %6 = getelementptr inbounds nuw %struct.Aig_Man_t_, ptr %5, i32 0, i32 4
  %7 = load ptr, ptr %6, align 8, !tbaa !32
  %8 = icmp ne ptr %7, null
  br i1 %8, label %9, label %15

9:                                                ; preds = %2
  %10 = load ptr, ptr %3, align 8, !tbaa !3
  %11 = getelementptr inbounds nuw %struct.Aig_Man_t_, ptr %10, i32 0, i32 4
  %12 = load ptr, ptr %11, align 8, !tbaa !32
  %13 = load i32, ptr %4, align 4, !tbaa !33
  %14 = call ptr @Vec_PtrEntry(ptr noundef %12, i32 noundef %13)
  br label %16

15:                                               ; preds = %2
  br label %16

16:                                               ; preds = %15, %9
  %17 = phi ptr [ %14, %9 ], [ null, %15 ]
  ret ptr %17
}

; Function Attrs: inlinehint nounwind uwtable
define internal i32 @Vec_IntEntry(ptr noundef %0, i32 noundef %1) #5 {
  %3 = alloca ptr, align 8
  %4 = alloca i32, align 4
  store ptr %0, ptr %3, align 8, !tbaa !91
  store i32 %1, ptr %4, align 4, !tbaa !33
  %5 = load ptr, ptr %3, align 8, !tbaa !91
  %6 = getelementptr inbounds nuw %struct.Vec_Int_t_, ptr %5, i32 0, i32 2
  %7 = load ptr, ptr %6, align 8, !tbaa !98
  %8 = load i32, ptr %4, align 4, !tbaa !33
  %9 = sext i32 %8 to i64
  %10 = getelementptr inbounds i32, ptr %7, i64 %9
  %11 = load i32, ptr %10, align 4, !tbaa !33
  ret i32 %11
}

; Function Attrs: inlinehint nounwind uwtable
define internal i32 @Vec_IntSize(ptr noundef %0) #5 {
  %2 = alloca ptr, align 8
  store ptr %0, ptr %2, align 8, !tbaa !91
  %3 = load ptr, ptr %2, align 8, !tbaa !91
  %4 = getelementptr inbounds nuw %struct.Vec_Int_t_, ptr %3, i32 0, i32 1
  %5 = load i32, ptr %4, align 4, !tbaa !96
  ret i32 %5
}

; Function Attrs: nounwind uwtable
define ptr @Ssw_ClassesPreparePairsSimple(ptr noundef %0, ptr noundef %1) #0 {
  %3 = alloca ptr, align 8
  %4 = alloca ptr, align 8
  %5 = alloca ptr, align 8
  %6 = alloca ptr, align 8
  %7 = alloca ptr, align 8
  %8 = alloca ptr, align 8
  %9 = alloca i32, align 4
  store ptr %0, ptr %3, align 8, !tbaa !3
  store ptr %1, ptr %4, align 8, !tbaa !91
  call void @llvm.lifetime.start.p0(i64 8, ptr %5) #11
  call void @llvm.lifetime.start.p0(i64 8, ptr %6) #11
  call void @llvm.lifetime.start.p0(i64 8, ptr %7) #11
  call void @llvm.lifetime.start.p0(i64 8, ptr %8) #11
  call void @llvm.lifetime.start.p0(i64 4, ptr %9) #11
  %10 = load ptr, ptr %3, align 8, !tbaa !3
  %11 = call ptr @Ssw_ClassesStart(ptr noundef %10)
  store ptr %11, ptr %5, align 8, !tbaa !8
  %12 = load ptr, ptr %4, align 8, !tbaa !91
  %13 = call i32 @Vec_IntSize(ptr noundef %12)
  %14 = sext i32 %13 to i64
  %15 = mul i64 8, %14
  %16 = call noalias ptr @malloc(i64 noundef %15) #12
  %17 = load ptr, ptr %5, align 8, !tbaa !8
  %18 = getelementptr inbounds nuw %struct.Ssw_Cla_t_, ptr %17, i32 0, i32 7
  store ptr %16, ptr %18, align 8, !tbaa !44
  store i32 0, ptr %9, align 4, !tbaa !33
  br label %19

19:                                               ; preds = %54, %2
  %20 = load i32, ptr %9, align 4, !tbaa !33
  %21 = load ptr, ptr %4, align 8, !tbaa !91
  %22 = call i32 @Vec_IntSize(ptr noundef %21)
  %23 = icmp slt i32 %20, %22
  br i1 %23, label %24, label %57

24:                                               ; preds = %19
  %25 = load ptr, ptr %3, align 8, !tbaa !3
  %26 = load ptr, ptr %4, align 8, !tbaa !91
  %27 = load i32, ptr %9, align 4, !tbaa !33
  %28 = call i32 @Vec_IntEntry(ptr noundef %26, i32 noundef %27)
  %29 = call ptr @Aig_ManObj(ptr noundef %25, i32 noundef %28)
  store ptr %29, ptr %8, align 8, !tbaa !48
  %30 = load ptr, ptr %3, align 8, !tbaa !3
  %31 = load ptr, ptr %4, align 8, !tbaa !91
  %32 = load i32, ptr %9, align 4, !tbaa !33
  %33 = add nsw i32 %32, 1
  %34 = call i32 @Vec_IntEntry(ptr noundef %31, i32 noundef %33)
  %35 = call ptr @Aig_ManObj(ptr noundef %30, i32 noundef %34)
  store ptr %35, ptr %7, align 8, !tbaa !48
  %36 = load ptr, ptr %3, align 8, !tbaa !3
  %37 = load ptr, ptr %7, align 8, !tbaa !48
  %38 = load ptr, ptr %8, align 8, !tbaa !48
  call void @Aig_ObjSetRepr(ptr noundef %36, ptr noundef %37, ptr noundef %38)
  %39 = load ptr, ptr %5, align 8, !tbaa !8
  %40 = getelementptr inbounds nuw %struct.Ssw_Cla_t_, ptr %39, i32 0, i32 7
  %41 = load ptr, ptr %40, align 8, !tbaa !44
  %42 = load i32, ptr %9, align 4, !tbaa !33
  %43 = sext i32 %42 to i64
  %44 = getelementptr inbounds ptr, ptr %41, i64 %43
  store ptr %44, ptr %6, align 8, !tbaa !51
  %45 = load ptr, ptr %8, align 8, !tbaa !48
  %46 = load ptr, ptr %6, align 8, !tbaa !51
  %47 = getelementptr inbounds ptr, ptr %46, i64 0
  store ptr %45, ptr %47, align 8, !tbaa !48
  %48 = load ptr, ptr %7, align 8, !tbaa !48
  %49 = load ptr, ptr %6, align 8, !tbaa !51
  %50 = getelementptr inbounds ptr, ptr %49, i64 1
  store ptr %48, ptr %50, align 8, !tbaa !48
  %51 = load ptr, ptr %5, align 8, !tbaa !8
  %52 = load ptr, ptr %8, align 8, !tbaa !48
  %53 = load ptr, ptr %6, align 8, !tbaa !51
  call void @Ssw_ObjAddClass(ptr noundef %51, ptr noundef %52, ptr noundef %53, i32 noundef 2)
  br label %54

54:                                               ; preds = %24
  %55 = load i32, ptr %9, align 4, !tbaa !33
  %56 = add nsw i32 %55, 2
  store i32 %56, ptr %9, align 4, !tbaa !33
  br label %19, !llvm.loop !99

57:                                               ; preds = %19
  %58 = load ptr, ptr %5, align 8, !tbaa !8
  %59 = getelementptr inbounds nuw %struct.Ssw_Cla_t_, ptr %58, i32 0, i32 8
  store ptr null, ptr %59, align 8, !tbaa !65
  %60 = load ptr, ptr %5, align 8, !tbaa !8
  call void @Ssw_ClassesCheck(ptr noundef %60)
  %61 = load ptr, ptr %5, align 8, !tbaa !8
  call void @llvm.lifetime.end.p0(i64 4, ptr %9) #11
  call void @llvm.lifetime.end.p0(i64 8, ptr %8) #11
  call void @llvm.lifetime.end.p0(i64 8, ptr %7) #11
  call void @llvm.lifetime.end.p0(i64 8, ptr %6) #11
  call void @llvm.lifetime.end.p0(i64 8, ptr %5) #11
  ret ptr %61
}