; Function Attrs: nounwind uwtable
define noalias noundef ptr @Ssw_ClassesPreparePairsSimple(ptr noundef %0, ptr noundef readonly captures(none) %1) local_unnamed_addr #0 {
  %3 = tail call ptr @Ssw_ClassesStart(ptr noundef %0)
  %4 = getelementptr i8, ptr %1, i64 4
  %.val29 = load i32, ptr %4, align 4, !tbaa !87
  %5 = sext i32 %.val29 to i64
  %6 = shl nsw i64 %5, 3
  %7 = tail call noalias ptr @malloc(i64 noundef %6) #22
  %8 = getelementptr inbounds nuw i8, ptr %3, i64 40
  store ptr %7, ptr %8, align 8, !tbaa !38
  %9 = icmp sgt i32 %.val29, 0
  br i1 %9, label %Aig_ManObj.exit36.lr.ph, label %46

Aig_ManObj.exit36.lr.ph:                          ; preds = %2
  %10 = getelementptr i8, ptr %1, i64 8
  %.val31 = load ptr, ptr %10, align 8, !tbaa !90
  %11 = getelementptr i8, ptr %0, i64 32
  %.val33 = load ptr, ptr %11, align 8, !tbaa !14, !nonnull !94, !noundef !94
  %12 = getelementptr i8, ptr %.val33, i64 8
  %.val.i = load ptr, ptr %12, align 8, !tbaa !29
  %13 = getelementptr i8, ptr %0, i64 256
  %14 = getelementptr inbounds nuw i8, ptr %3, i64 8
  %15 = load ptr, ptr %14, align 8, !tbaa !26
  %16 = getelementptr inbounds nuw i8, ptr %3, i64 16
  %17 = load ptr, ptr %16, align 8, !tbaa !27
  %18 = getelementptr inbounds nuw i8, ptr %3, i64 28
  %19 = getelementptr inbounds nuw i8, ptr %3, i64 36
  %.promoted = load i32, ptr %18, align 4, !tbaa !40
  %.promoted39 = load i32, ptr %19, align 4, !tbaa !41
  br label %Aig_ManObj.exit36

Aig_ManObj.exit36:                                ; preds = %Aig_ManObj.exit36.lr.ph, %Aig_ManObj.exit36
  %indvars.iv = phi i64 [ 0, %Aig_ManObj.exit36.lr.ph ], [ %indvars.iv.next, %Aig_ManObj.exit36 ]
  %20 = phi i32 [ %.promoted39, %Aig_ManObj.exit36.lr.ph ], [ %43, %Aig_ManObj.exit36 ]
  %21 = phi i32 [ %.promoted, %Aig_ManObj.exit36.lr.ph ], [ %42, %Aig_ManObj.exit36 ]
  %22 = getelementptr inbounds nuw i32, ptr %.val31, i64 %indvars.iv
  %23 = load i32, ptr %22, align 4, !tbaa !44
  %24 = sext i32 %23 to i64
  %25 = getelementptr inbounds ptr, ptr %.val.i, i64 %24
  %26 = load ptr, ptr %25, align 8, !tbaa !46
  %27 = or disjoint i64 %indvars.iv, 1
  %28 = getelementptr inbounds nuw i32, ptr %.val31, i64 %27
  %29 = load i32, ptr %28, align 4, !tbaa !44
  %30 = sext i32 %29 to i64
  %31 = getelementptr inbounds ptr, ptr %.val.i, i64 %30
  %32 = load ptr, ptr %31, align 8, !tbaa !46
  %.val = load ptr, ptr %13, align 8, !tbaa !33
  %33 = getelementptr i8, ptr %32, i64 36
  %.val26 = load i32, ptr %33, align 4, !tbaa !42
  %34 = sext i32 %.val26 to i64
  %35 = getelementptr inbounds ptr, ptr %.val, i64 %34
  store ptr %26, ptr %35, align 8, !tbaa !45
  %36 = getelementptr inbounds nuw ptr, ptr %7, i64 %indvars.iv
  store ptr %26, ptr %36, align 8, !tbaa !45
  %37 = getelementptr inbounds nuw i8, ptr %36, i64 8
  store ptr %32, ptr %37, align 8, !tbaa !45
  %38 = getelementptr i8, ptr %26, i64 36
  %.val27 = load i32, ptr %38, align 4, !tbaa !42
  %39 = sext i32 %.val27 to i64
  %40 = getelementptr inbounds ptr, ptr %15, i64 %39
  store ptr %36, ptr %40, align 8, !tbaa !43
  %41 = getelementptr inbounds i32, ptr %17, i64 %39
  store i32 2, ptr %41, align 4, !tbaa !44
  %42 = add nsw i32 %21, 1
  %43 = add nsw i32 %20, 1
  %indvars.iv.next = add nuw nsw i64 %indvars.iv, 2
  %.val28 = load i32, ptr %4, align 4, !tbaa !87
  %44 = sext i32 %.val28 to i64
  %45 = icmp slt i64 %indvars.iv.next, %44
  br i1 %45, label %Aig_ManObj.exit36, label %._crit_edge, !llvm.loop !95

._crit_edge:                                      ; preds = %Aig_ManObj.exit36
  store i32 %42, ptr %18, align 4, !tbaa !40
  store i32 %43, ptr %19, align 4, !tbaa !41
  br label %46

46:                                               ; preds = %._crit_edge, %2
  %47 = getelementptr inbounds nuw i8, ptr %3, i64 48
  store ptr null, ptr %47, align 8, !tbaa !62
  ret ptr %3
}